target datalayout = "e-m:e-p270:32:32-p271:32:32-p272:64:64-i64:64-i128:128-f80:128-n8:16:32:64-S128"
target triple = "x86_64-unknown-linux-gnu"

%"class.FLAC::Metadata::Prototype" = type <{ ptr, ptr, i8, [7 x i8] }>
%"class.FLAC::Metadata::Iterator" = type { ptr, ptr }

; Function Attrs: mustprogress nounwind sspstrong uwtable
define linkonce_odr void @_ZN4FLAC8Metadata9Prototype13set_referenceEb(ptr noundef nonnull align 8 dereferenceable(17) %this, i1 noundef zeroext %x) #5 comdat align 2 {
entry:
  %this.addr = alloca ptr, align 8
  %x.addr = alloca i8, align 1
  store ptr %this, ptr %this.addr, align 8
  %frombool = zext i1 %x to i8
  store i8 %frombool, ptr %x.addr, align 1
  %this1 = load ptr, ptr %this.addr, align 8
  %0 = load i8, ptr %x.addr, align 1
  %tobool = trunc i8 %0 to i1
  %is_reference_ = getelementptr inbounds %"class.FLAC::Metadata::Prototype", ptr %this1, i32 0, i32 2
  %frombool2 = zext i1 %tobool to i8
  store i8 %frombool2, ptr %is_reference_, align 8
  ret void
}

; Function Attrs: mustprogress sspstrong uwtable
define noundef zeroext i1 @_ZN4FLAC8Metadata8Iterator19insert_block_beforeEPNS0_9PrototypeE(ptr noundef nonnull align 8 dereferenceable(16) %this, ptr noundef %block) #0 align 2 {
entry:
  %this.addr = alloca ptr, align 8
  %block.addr = alloca ptr, align 8
  %ret = alloca i8, align 1
  store ptr %this, ptr %this.addr, align 8
  store ptr %block, ptr %block.addr, align 8
  %this1 = load ptr, ptr %this.addr, align 8
  %iterator_ = getelementptr inbounds %"class.FLAC::Metadata::Iterator", ptr %this1, i32 0, i32 1
  %0 = load ptr, ptr %iterator_, align 8
  %1 = load ptr, ptr %block.addr, align 8
  %object_ = getelementptr inbounds %"class.FLAC::Metadata::Prototype", ptr %1, i32 0, i32 1
  %2 = load ptr, ptr %object_, align 8
  %call = call i32 @FLAC__metadata_iterator_insert_block_before(ptr noundef %0, ptr noundef %2)
  %tobool = icmp ne i32 %call, 0
  %frombool = zext i1 %tobool to i8
  store i8 %frombool, ptr %ret, align 1
  %3 = load i8, ptr %ret, align 1
  %tobool2 = trunc i8 %3 to i1
  br i1 %tobool2, label %if.then, label %if.end

if.then:                                          ; preds = %entry
  %4 = load ptr, ptr %block.addr, align 8
  call void @_ZN4FLAC8Metadata9Prototype13set_referenceEb(ptr noundef nonnull align 8 dereferenceable(17) %4, i1 noundef zeroext true)
  %5 = load ptr, ptr %block.addr, align 8
  %isnull = icmp eq ptr %5, null
  br i1 %isnull, label %delete.end, label %delete.notnull

delete.notnull:                                   ; preds = %if.then
  %vtable = load ptr, ptr %5, align 8
  %vfn = getelementptr inbounds ptr, ptr %vtable, i64 2
  %6 = load ptr, ptr %vfn, align 8
  call void %6(ptr noundef nonnull align 8 dereferenceable(17) %5) #14
  br label %delete.end

delete.end:                                       ; preds = %delete.notnull, %if.then
  br label %if.end

if.end:                                           ; preds = %delete.end, %entry
  %7 = load i8, ptr %ret, align 1
  %tobool3 = trunc i8 %7 to i1
  ret i1 %tobool3
}